; Function Attrs: mustprogress uwtable
define noundef zeroext i1 @_ZNK6icu_7518AnnualTimeZoneRuleeqERKNS_12TimeZoneRuleE(ptr noundef nonnull readonly align 8 dereferenceable(96) %this, ptr noundef nonnull readonly align 8 dereferenceable(80) %that) unnamed_addr #0 align 2 {
entry:
  %cmp = icmp eq ptr %this, %that
  br i1 %cmp, label %return, label %typeid.end

typeid.end:                                       ; preds = %entry
  %vtable = load ptr, ptr %this, align 8
  %0 = getelementptr inbounds i8, ptr %vtable, i64 -8
  %1 = load ptr, ptr %0, align 8
  %vtable2 = load ptr, ptr %that, align 8
  %2 = getelementptr inbounds i8, ptr %vtable2, i64 -8
  %3 = load ptr, ptr %2, align 8
  %__name.i.i = getelementptr inbounds i8, ptr %1, i64 8
  %4 = load ptr, ptr %__name.i.i, align 8
  %__name2.i.i = getelementptr inbounds i8, ptr %3, i64 8
  %5 = load ptr, ptr %__name2.i.i, align 8
  %cmp.i.i = icmp eq ptr %4, %5
  br i1 %cmp.i.i, label %if.end4, label %if.end.i.i

if.end.i.i:                                       ; preds = %typeid.end
  %6 = load i8, ptr %4, align 1
  %cmp4.not.i.i = icmp eq i8 %6, 42
  br i1 %cmp4.not.i.i, label %return, label %_ZNKSt9type_infoneERKS_.exit

_ZNKSt9type_infoneERKS_.exit:                     ; preds = %if.end.i.i
  %7 = load i8, ptr %5, align 1
  %cmp.i.i.i = icmp eq i8 %7, 42
  %cond.idx.i.i.i = zext i1 %cmp.i.i.i to i64
  %cond.i.i.i = getelementptr inbounds i8, ptr %5, i64 %cond.idx.i.i.i
  %call6.i.i = tail call i32 @strcmp(ptr noundef nonnull dereferenceable(1) %4, ptr noundef nonnull dereferenceable(1) %cond.i.i.i) #16
  %cmp7.i.i.not = icmp eq i32 %call6.i.i, 0
  br i1 %cmp7.i.i.not, label %if.end4, label %return

if.end4:                                          ; preds = %typeid.end, %_ZNKSt9type_infoneERKS_.exit
  %fDateTimeRule = getelementptr inbounds i8, ptr %this, i64 80
  %8 = load ptr, ptr %fDateTimeRule, align 8
  %fDateTimeRule5 = getelementptr inbounds i8, ptr %that, i64 80
  %9 = load ptr, ptr %fDateTimeRule5, align 8
  %call6 = tail call noundef zeroext i1 @_ZNK6icu_7512DateTimeRuleeqERKS0_(ptr noundef nonnull align 8 dereferenceable(36) %8, ptr noundef nonnull align 8 dereferenceable(36) %9)
  br i1 %call6, label %land.lhs.true, label %return

land.lhs.true:                                    ; preds = %if.end4
  %fStartYear = getelementptr inbounds i8, ptr %this, i64 88
  %10 = load i32, ptr %fStartYear, align 8
  %fStartYear7 = getelementptr inbounds i8, ptr %that, i64 88
  %11 = load i32, ptr %fStartYear7, align 8
  %cmp8 = icmp eq i32 %10, %11
  br i1 %cmp8, label %land.rhs, label %return

land.rhs:                                         ; preds = %land.lhs.true
  %fEndYear = getelementptr inbounds i8, ptr %this, i64 92
  %12 = load i32, ptr %fEndYear, align 4
  %fEndYear9 = getelementptr inbounds i8, ptr %that, i64 92
  %13 = load i32, ptr %fEndYear9, align 4
  %cmp10 = icmp eq i32 %12, %13
  br label %return

return:                                           ; preds = %if.end.i.i, %if.end4, %land.lhs.true, %land.rhs, %_ZNKSt9type_infoneERKS_.exit, %entry
  %retval.0 = phi i1 [ true, %entry ], [ false, %_ZNKSt9type_infoneERKS_.exit ], [ false, %land.lhs.true ], [ false, %if.end4 ], [ %cmp10, %land.rhs ], [ false, %if.end.i.i ]
  ret i1 %retval.0
}